; Function Attrs: nounwind uwtable
define hidden void @zim_XMLReader_setParserProperty(ptr nocapture noundef readonly %0, ptr nocapture noundef writeonly %1) #0 {
  %3 = alloca i64, align 8
  %4 = alloca i8, align 1
  %5 = getelementptr inbounds i8, ptr %0, i64 44
  %6 = load i32, ptr %5, align 4
  %7 = call i32 (i32, ptr, ...) @zend_parse_parameters(i32 noundef %6, ptr noundef nonnull @.str.21, ptr noundef nonnull %3, ptr noundef nonnull %4) #11
  %8 = icmp eq i32 %7, -1
  br i1 %8, label %9, label %12

9:                                                ; preds = %2
  %10 = load ptr, ptr getelementptr inbounds (%struct._zend_executor_globals, ptr @executor_globals, i64 0, i32 50), align 8
  %11 = icmp ne ptr %10, null
  call void @llvm.assume(i1 %11)
  br label %33

12:                                               ; preds = %2
  %13 = getelementptr inbounds i8, ptr %0, i64 32
  %14 = load ptr, ptr %13, align 8
  %15 = getelementptr inbounds i8, ptr %14, i64 -32
  %16 = load ptr, ptr %15, align 8
  %.not8 = icmp eq ptr %16, null
  br i1 %.not8, label %17, label %20

17:                                               ; preds = %12
  call void (ptr, ptr, ...) @zend_throw_error(ptr noundef null, ptr noundef nonnull @.str.10) #11
  %18 = load ptr, ptr getelementptr inbounds (%struct._zend_executor_globals, ptr @executor_globals, i64 0, i32 50), align 8
  %19 = icmp ne ptr %18, null
  call void @llvm.assume(i1 %19)
  br label %33

20:                                               ; preds = %12
  %21 = load i64, ptr %3, align 8
  %22 = trunc i64 %21 to i32
  %23 = load i8, ptr %4, align 1
  %24 = and i8 %23, 1
  %25 = zext nneg i8 %24 to i32
  %26 = call i32 @xmlTextReaderSetParserProp(ptr noundef nonnull %16, i32 noundef %22, i32 noundef %25) #11
  %27 = icmp eq i32 %26, -1
  br i1 %27, label %28, label %31

28:                                               ; preds = %20
  call void (i32, ptr, ...) @zend_argument_value_error(i32 noundef 1, ptr noundef nonnull @.str.11) #11
  %29 = load ptr, ptr getelementptr inbounds (%struct._zend_executor_globals, ptr @executor_globals, i64 0, i32 50), align 8
  %30 = icmp ne ptr %29, null
  call void @llvm.assume(i1 %30)
  br label %33

31:                                               ; preds = %20
  %32 = getelementptr inbounds i8, ptr %1, i64 8
  store i32 3, ptr %32, align 8
  br label %33

33:                                               ; preds = %31, %28, %17, %9
  ret void
}